; Function Attrs: null_pointer_is_valid sspstrong uwtable
define internal fastcc range(i32 7, 9) i32 @dissect_power_control_rsp(ptr noundef %0, ptr noundef %1, i32 noundef range(i32 3, 5) %2) unnamed_addr #0 {
  %4 = load i32, ptr @hf_control_pwrflags, align 4
  %5 = load i32, ptr @ett_pwrflags, align 4
  %6 = tail call ptr @proto_tree_add_bitmask(ptr noundef %1, ptr noundef %0, i32 noundef %2, i32 noundef %4, i32 noundef %5, ptr noundef nonnull @hfx_control_pwrflags, i32 noundef 0)
  %7 = add nuw nsw i32 %2, 1
  %8 = load i32, ptr @hf_control_delta, align 4
  %9 = tail call ptr @proto_tree_add_item(ptr noundef %1, i32 noundef %8, ptr noundef %0, i32 noundef %7, i32 noundef 1, i32 noundef 0)
  %10 = add nuw nsw i32 %2, 2
  %11 = load i32, ptr @hf_control_txpwr, align 4
  %12 = tail call ptr @proto_tree_add_item(ptr noundef %1, i32 noundef %11, ptr noundef %0, i32 noundef %10, i32 noundef 1, i32 noundef 0)
  %13 = add nuw nsw i32 %2, 3
  %14 = load i32, ptr @hf_control_acceptable_power_reduction, align 4
  %15 = tail call ptr @proto_tree_add_item(ptr noundef %1, i32 noundef %14, ptr noundef %0, i32 noundef %13, i32 noundef 1, i32 noundef 0)
  %16 = add nuw nsw i32 %2, 4
  ret i32 %16
}